
a.out:	file format Mach-O arm64


Disassembly of section __TEXT,__text:

0000000100003c18 __Z3Foomiiiimiiii:
100003c18: ff 03 01 d1                 	sub	sp, sp, #64
100003c1c: e8 43 40 b9                 	ldr	w8, [sp, #64]
100003c20: e9 47 40 b9                 	ldr	w9, [sp, #68]
100003c24: e0 1f 00 f9                 	str	x0, [sp, #56]
100003c28: e1 37 00 b9                 	str	w1, [sp, #52]
100003c2c: e2 33 00 b9                 	str	w2, [sp, #48]
100003c30: e3 2f 00 b9                 	str	w3, [sp, #44]
100003c34: e4 2b 00 b9                 	str	w4, [sp, #40]
100003c38: e5 13 00 f9                 	str	x5, [sp, #32]
100003c3c: e6 1f 00 b9                 	str	w6, [sp, #28]
100003c40: e7 1b 00 b9                 	str	w7, [sp, #24]
100003c44: e8 17 00 b9                 	str	w8, [sp, #20]
100003c48: e9 13 00 b9                 	str	w9, [sp, #16]
100003c4c: aa 0c 80 d2                 	mov	x10, #101
100003c50: ea 07 00 f9                 	str	x10, [sp, #8]
100003c54: ea 07 40 f9                 	ldr	x10, [sp, #8]
100003c58: eb 2f 80 b9                 	ldrsw	x11, [sp, #44]
100003c5c: 4a 01 0b eb                 	subs	x10, x10, x11
100003c60: ea 03 00 f9                 	str	x10, [sp]
100003c64: e0 03 40 f9                 	ldr	x0, [sp]
100003c68: ff 03 01 91                 	add	sp, sp, #64
100003c6c: c0 03 5f d6                 	ret

0000000100003c70 _main:
100003c70: ff c3 00 d1                 	sub	sp, sp, #48
100003c74: fd 7b 02 a9                 	stp	x29, x30, [sp, #32]
100003c78: fd 83 00 91                 	add	x29, sp, #32
100003c7c: 08 00 80 52                 	mov	w8, #0
100003c80: bf c3 1f b8                 	stur	wzr, [x29, #-4]

---
100003c84: 20 00 80 d2                 	mov	x0, #1
100003c88: 41 00 80 52                 	mov	w1, #2
100003c8c: 62 00 80 52                 	mov	w2, #3
100003c90: 83 00 80 52                 	mov	w3, #4
100003c94: a4 00 80 52                 	mov	w4, #5
100003c98: c5 00 80 d2                 	mov	x5, #6
100003c9c: e6 00 80 52                 	mov	w6, #7
100003ca0: 07 01 80 52                 	mov	w7, #8
100003ca4: e9 03 00 91                 	mov	x9, sp
100003ca8: 2a 01 80 52                 	mov	w10, #9
100003cac: 2a 01 00 b9                 	str	w10, [x9]
100003cb0: 4a 01 80 52                 	mov	w10, #10
100003cb4: 2a 05 00 b9                 	str	w10, [x9, #4]
100003cb8: e8 0f 00 b9                 	str	w8, [sp, #12]
100003cbc: d7 ff ff 97                 	bl	#-164 <__Z3Foomiiiimiiii>
100003cc0: e0 0b 00 f9                 	str	x0, [sp, #16]
---

100003cc4: e1 0b 40 f9                 	ldr	x1, [sp, #16]
100003cc8: 00 00 00 b0                 	adrp	x0, #4096
100003ccc: 00 04 40 f9                 	ldr	x0, [x0, #8]
100003cd0: 7b 00 00 94                 	bl	#492 <dyld_stub_binder+0x100003ebc>
100003cd4: 01 00 00 90                 	adrp	x1, #0
100003cd8: 21 80 34 91                 	add	x1, x1, #3360
100003cdc: 06 00 00 94                 	bl	#24 <__ZNSt3__113basic_ostreamIwNS_11char_traitsIwEEElsEPFRS3_S4_E>
100003ce0: e8 0f 40 b9                 	ldr	w8, [sp, #12]
100003ce4: e0 03 08 aa                 	mov	x0, x8
100003ce8: fd 7b 42 a9                 	ldp	x29, x30, [sp, #32]
100003cec: ff c3 00 91                 	add	sp, sp, #48
100003cf0: c0 03 5f d6                 	ret

0000000100003cf4 __ZNSt3__113basic_ostreamIwNS_11char_traitsIwEEElsEPFRS3_S4_E:
100003cf4: ff 83 00 d1                 	sub	sp, sp, #32
100003cf8: fd 7b 01 a9                 	stp	x29, x30, [sp, #16]
100003cfc: fd 43 00 91                 	add	x29, sp, #16
100003d00: e0 07 00 f9                 	str	x0, [sp, #8]
100003d04: e1 03 00 f9                 	str	x1, [sp]
100003d08: e0 07 40 f9                 	ldr	x0, [sp, #8]
100003d0c: e8 03 40 f9                 	ldr	x8, [sp]
100003d10: 00 01 3f d6                 	blr	x8
100003d14: fd 7b 41 a9                 	ldp	x29, x30, [sp, #16]
100003d18: ff 83 00 91                 	add	sp, sp, #32
100003d1c: c0 03 5f d6                 	ret

0000000100003d20 __ZNSt3__1L4endlIwNS_11char_traitsIwEEEERNS_13basic_ostreamIT_T0_EES7_:
100003d20: ff c3 00 d1                 	sub	sp, sp, #48
100003d24: fd 7b 02 a9                 	stp	x29, x30, [sp, #32]
100003d28: fd 83 00 91                 	add	x29, sp, #32
100003d2c: a0 83 1f f8                 	stur	x0, [x29, #-8]
100003d30: a0 83 5f f8                 	ldur	x0, [x29, #-8]
100003d34: a8 83 5f f8                 	ldur	x8, [x29, #-8]
100003d38: 09 01 40 f9                 	ldr	x9, [x8]
100003d3c: 29 81 5e f8                 	ldur	x9, [x9, #-24]
100003d40: 08 01 09 8b                 	add	x8, x8, x9
100003d44: e0 0b 00 f9                 	str	x0, [sp, #16]
100003d48: e0 03 08 aa                 	mov	x0, x8
100003d4c: 4a 01 80 52                 	mov	w10, #10
100003d50: 41 1d 00 13                 	sxtb	w1, w10
100003d54: 0e 00 00 94                 	bl	#56 <__ZNKSt3__19basic_iosIwNS_11char_traitsIwEEE5widenEc>
100003d58: e8 0b 40 f9                 	ldr	x8, [sp, #16]
100003d5c: e0 0f 00 b9                 	str	w0, [sp, #12]
100003d60: e0 03 08 aa                 	mov	x0, x8
100003d64: e1 0f 40 b9                 	ldr	w1, [sp, #12]
100003d68: 4f 00 00 94                 	bl	#316 <dyld_stub_binder+0x100003ea4>
100003d6c: a8 83 5f f8                 	ldur	x8, [x29, #-8]
100003d70: e0 03 08 aa                 	mov	x0, x8
100003d74: 4f 00 00 94                 	bl	#316 <dyld_stub_binder+0x100003eb0>
100003d78: a8 83 5f f8                 	ldur	x8, [x29, #-8]
100003d7c: e0 03 08 aa                 	mov	x0, x8
100003d80: fd 7b 42 a9                 	ldp	x29, x30, [sp, #32]
100003d84: ff c3 00 91                 	add	sp, sp, #48
100003d88: c0 03 5f d6                 	ret

0000000100003d8c __ZNKSt3__19basic_iosIwNS_11char_traitsIwEEE5widenEc:
100003d8c: ff 43 01 d1                 	sub	sp, sp, #80
100003d90: fd 7b 04 a9                 	stp	x29, x30, [sp, #64]
100003d94: fd 03 01 91                 	add	x29, sp, #64
100003d98: a0 83 1f f8                 	stur	x0, [x29, #-8]
100003d9c: a1 73 1f 38                 	sturb	w1, [x29, #-9]
100003da0: a0 83 5f f8                 	ldur	x0, [x29, #-8]
100003da4: a8 63 00 d1                 	sub	x8, x29, #24
100003da8: e8 0b 00 f9                 	str	x8, [sp, #16]
100003dac: 3b 00 00 94                 	bl	#236 <dyld_stub_binder+0x100003e98>
100003db0: e0 0b 40 f9                 	ldr	x0, [sp, #16]
100003db4: 17 00 00 94                 	bl	#92 <__ZNSt3__1L9use_facetINS_5ctypeIwEEEERKT_RKNS_6localeE>
100003db8: e0 07 00 f9                 	str	x0, [sp, #8]
100003dbc: 01 00 00 14                 	b	#4 <__ZNKSt3__19basic_iosIwNS_11char_traitsIwEEE5widenEc+0x34>
100003dc0: a1 73 df 38                 	ldursb	w1, [x29, #-9]
100003dc4: e0 07 40 f9                 	ldr	x0, [sp, #8]
100003dc8: 1d 00 00 94                 	bl	#116 <__ZNKSt3__15ctypeIwE5widenEc>
100003dcc: e0 07 00 b9                 	str	w0, [sp, #4]
100003dd0: 01 00 00 14                 	b	#4 <__ZNKSt3__19basic_iosIwNS_11char_traitsIwEEE5widenEc+0x48>
100003dd4: a0 63 00 d1                 	sub	x0, x29, #24
100003dd8: 3c 00 00 94                 	bl	#240 <dyld_stub_binder+0x100003ec8>
100003ddc: e1 07 40 b9                 	ldr	w1, [sp, #4]
100003de0: e0 03 01 aa                 	mov	x0, x1
100003de4: fd 7b 44 a9                 	ldp	x29, x30, [sp, #64]
100003de8: ff 43 01 91                 	add	sp, sp, #80
100003dec: c0 03 5f d6                 	ret
100003df0: e0 13 00 f9                 	str	x0, [sp, #32]
100003df4: e1 1f 00 b9                 	str	w1, [sp, #28]
100003df8: a0 63 00 d1                 	sub	x0, x29, #24
100003dfc: 33 00 00 94                 	bl	#204 <dyld_stub_binder+0x100003ec8>
100003e00: 01 00 00 14                 	b	#4 <__ZNKSt3__19basic_iosIwNS_11char_traitsIwEEE5widenEc+0x78>
100003e04: e0 13 40 f9                 	ldr	x0, [sp, #32]
100003e08: 1e 00 00 94                 	bl	#120 <dyld_stub_binder+0x100003e80>
100003e0c: 1a 00 00 94                 	bl	#104 <___clang_call_terminate>

0000000100003e10 __ZNSt3__1L9use_facetINS_5ctypeIwEEEERKT_RKNS_6localeE:
100003e10: ff 83 00 d1                 	sub	sp, sp, #32
100003e14: fd 7b 01 a9                 	stp	x29, x30, [sp, #16]
100003e18: fd 43 00 91                 	add	x29, sp, #16
100003e1c: e0 07 00 f9                 	str	x0, [sp, #8]
100003e20: e0 07 40 f9                 	ldr	x0, [sp, #8]
100003e24: 01 00 00 b0                 	adrp	x1, #4096
100003e28: 21 00 40 f9                 	ldr	x1, [x1]
100003e2c: 18 00 00 94                 	bl	#96 <dyld_stub_binder+0x100003e8c>
100003e30: fd 7b 41 a9                 	ldp	x29, x30, [sp, #16]
100003e34: ff 83 00 91                 	add	sp, sp, #32
100003e38: c0 03 5f d6                 	ret

0000000100003e3c __ZNKSt3__15ctypeIwE5widenEc:
100003e3c: ff 83 00 d1                 	sub	sp, sp, #32
100003e40: fd 7b 01 a9                 	stp	x29, x30, [sp, #16]
100003e44: fd 43 00 91                 	add	x29, sp, #16
100003e48: e0 07 00 f9                 	str	x0, [sp, #8]
100003e4c: e1 1f 00 39                 	strb	w1, [sp, #7]
100003e50: e8 07 40 f9                 	ldr	x8, [sp, #8]
100003e54: e1 1f c0 39                 	ldrsb	w1, [sp, #7]
100003e58: 09 01 40 f9                 	ldr	x9, [x8]
100003e5c: 29 2d 40 f9                 	ldr	x9, [x9, #88]
100003e60: e0 03 08 aa                 	mov	x0, x8
100003e64: 20 01 3f d6                 	blr	x9
100003e68: fd 7b 41 a9                 	ldp	x29, x30, [sp, #16]
100003e6c: ff 83 00 91                 	add	sp, sp, #32
100003e70: c0 03 5f d6                 	ret

0000000100003e74 ___clang_call_terminate:
100003e74: fd 7b bf a9                 	stp	x29, x30, [sp, #-16]!
100003e78: 1a 00 00 94                 	bl	#104 <dyld_stub_binder+0x100003ee0>
100003e7c: 16 00 00 94                 	bl	#88 <dyld_stub_binder+0x100003ed4>

Disassembly of section __TEXT,__stubs:

0000000100003e80 __stubs:
100003e80: 1f 20 03 d5                 	nop
100003e84: f0 0b 02 58                 	ldr	x16, #16764
100003e88: 00 02 1f d6                 	br	x16
100003e8c: 1f 20 03 d5                 	nop
100003e90: d0 0b 02 58                 	ldr	x16, #16760
100003e94: 00 02 1f d6                 	br	x16
100003e98: 1f 20 03 d5                 	nop
100003e9c: b0 0b 02 58                 	ldr	x16, #16756
100003ea0: 00 02 1f d6                 	br	x16
100003ea4: 1f 20 03 d5                 	nop
100003ea8: 90 0b 02 58                 	ldr	x16, #16752
100003eac: 00 02 1f d6                 	br	x16
100003eb0: 1f 20 03 d5                 	nop
100003eb4: 70 0b 02 58                 	ldr	x16, #16748
100003eb8: 00 02 1f d6                 	br	x16
100003ebc: 1f 20 03 d5                 	nop
100003ec0: 50 0b 02 58                 	ldr	x16, #16744
100003ec4: 00 02 1f d6                 	br	x16
100003ec8: 1f 20 03 d5                 	nop
100003ecc: 30 0b 02 58                 	ldr	x16, #16740
100003ed0: 00 02 1f d6                 	br	x16
100003ed4: 1f 20 03 d5                 	nop
100003ed8: 10 0b 02 58                 	ldr	x16, #16736
100003edc: 00 02 1f d6                 	br	x16
100003ee0: 1f 20 03 d5                 	nop
100003ee4: f0 0a 02 58                 	ldr	x16, #16732
100003ee8: 00 02 1f d6                 	br	x16

Disassembly of section __TEXT,__stub_helper:

0000000100003eec __stub_helper:
100003eec: f1 0a 02 10                 	adr	x17, #16732
100003ef0: 1f 20 03 d5                 	nop
100003ef4: f0 47 bf a9                 	stp	x16, x17, [sp, #-16]!
100003ef8: 1f 20 03 d5                 	nop
100003efc: f0 08 00 58                 	ldr	x16, #284
100003f00: 00 02 1f d6                 	br	x16
100003f04: 50 00 00 18                 	ldr	w16, #8
100003f08: f9 ff ff 17                 	b	#-28 <__stub_helper>
100003f0c: 16 00 00 00                 	udf	#22
100003f10: 50 00 00 18                 	ldr	w16, #8
100003f14: f6 ff ff 17                 	b	#-40 <__stub_helper>
100003f18: 43 00 00 00                 	udf	#67
100003f1c: 50 00 00 18                 	ldr	w16, #8
100003f20: f3 ff ff 17                 	b	#-52 <__stub_helper>
100003f24: 67 00 00 00                 	udf	#103
100003f28: 50 00 00 18                 	ldr	w16, #8
100003f2c: f0 ff ff 17                 	b	#-64 <__stub_helper>
100003f30: a4 00 00 00                 	udf	#164
100003f34: 50 00 00 18                 	ldr	w16, #8
100003f38: ed ff ff 17                 	b	#-76 <__stub_helper>
100003f3c: e3 00 00 00                 	udf	#227
100003f40: 50 00 00 18                 	ldr	w16, #8
100003f44: ea ff ff 17                 	b	#-88 <__stub_helper>
100003f48: 1e 01 00 00                 	udf	#286
100003f4c: 50 00 00 18                 	ldr	w16, #8
100003f50: e7 ff ff 17                 	b	#-100 <__stub_helper>
100003f54: 3a 01 00 00                 	udf	#314
100003f58: 50 00 00 18                 	ldr	w16, #8
100003f5c: e4 ff ff 17                 	b	#-112 <__stub_helper>
100003f60: 51 01 00 00                 	udf	#337
100003f64: 50 00 00 18                 	ldr	w16, #8
100003f68: e1 ff ff 17                 	b	#-124 <__stub_helper>
100003f6c: 00 00 00 00                 	udf	#0
